; ModuleID = '58/696.c'
source_filename = "58/696.c"
target datalayout = "e-m:e-p270:32:32-p271:32:32-p272:64:64-i64:64-f80:128-n8:16:32:64-S128"
target triple = "x86_64-pc-linux-gnu"

@.str = private unnamed_addr constant [3 x i8] c"1\0A\00", align 1
@.str.1 = private unnamed_addr constant [3 x i8] c"0\0A\00", align 1

; Function Attrs: noinline nounwind uwtable
define dso_local i32 @main() #0 {
  %1 = alloca i32, align 4
  %2 = alloca i32, align 4
  %3 = alloca i32, align 4
  %4 = alloca i32, align 4
  %5 = alloca [100 x i32], align 16
  %6 = alloca [100 x [81 x i8]], align 16
  %7 = alloca [10 x i8], align 1
  store i32 0, i32* %1, align 4
  %8 = getelementptr inbounds [10 x i8], [10 x i8]* %7, i64 0, i64 0
  %9 = call i32 (i8*, ...) bitcast (i32 (...)* @gets to i32 (i8*, ...)*)(i8* %8)
  %10 = getelementptr inbounds [10 x i8], [10 x i8]* %7, i64 0, i64 0
  %11 = call i32 @atoi(i8* %10) #3
  store i32 %11, i32* %2, align 4
  store i32 0, i32* %3, align 4
  br label %12

12:                                               ; preds = %31, %0
  %13 = load i32, i32* %3, align 4
  %14 = load i32, i32* %2, align 4
  %15 = icmp slt i32 %13, %14
  br i1 %15, label %16, label %34

16:                                               ; preds = %12
  %17 = load i32, i32* %3, align 4
  %18 = sext i32 %17 to i64
  %19 = getelementptr inbounds [100 x [81 x i8]], [100 x [81 x i8]]* %6, i64 0, i64 %18
  %20 = getelementptr inbounds [81 x i8], [81 x i8]* %19, i64 0, i64 0
  %21 = call i32 (i8*, ...) bitcast (i32 (...)* @gets to i32 (i8*, ...)*)(i8* %20)
  %22 = load i32, i32* %3, align 4
  %23 = sext i32 %22 to i64
  %24 = getelementptr inbounds [100 x [81 x i8]], [100 x [81 x i8]]* %6, i64 0, i64 %23
  %25 = getelementptr inbounds [81 x i8], [81 x i8]* %24, i64 0, i64 0
  %26 = call i64 @strlen(i8* %25) #3
  %27 = trunc i64 %26 to i32
  %28 = load i32, i32* %3, align 4
  %29 = sext i32 %28 to i64
  %30 = getelementptr inbounds [100 x i32], [100 x i32]* %5, i64 0, i64 %29
  store i32 %27, i32* %30, align 4
  br label %31

31:                                               ; preds = %16
  %32 = load i32, i32* %3, align 4
  %33 = add nsw i32 %32, 1
  store i32 %33, i32* %3, align 4
  br label %12

34:                                               ; preds = %12
  store i32 0, i32* %3, align 4
  br label %35

35:                                               ; preds = %186, %34
  %36 = load i32, i32* %3, align 4
  %37 = load i32, i32* %2, align 4
  %38 = icmp slt i32 %36, %37
  br i1 %38, label %39, label %189

39:                                               ; preds = %35
  %40 = load i32, i32* %3, align 4
  %41 = sext i32 %40 to i64
  %42 = getelementptr inbounds [100 x [81 x i8]], [100 x [81 x i8]]* %6, i64 0, i64 %41
  %43 = getelementptr inbounds [81 x i8], [81 x i8]* %42, i64 0, i64 0
  %44 = load i8, i8* %43, align 1
  %45 = sext i8 %44 to i32
  %46 = icmp eq i32 %45, 95
  br i1 %46, label %79, label %47

47:                                               ; preds = %39
  %48 = load i32, i32* %3, align 4
  %49 = sext i32 %48 to i64
  %50 = getelementptr inbounds [100 x [81 x i8]], [100 x [81 x i8]]* %6, i64 0, i64 %49
  %51 = getelementptr inbounds [81 x i8], [81 x i8]* %50, i64 0, i64 0
  %52 = load i8, i8* %51, align 1
  %53 = sext i8 %52 to i32
  %54 = icmp sge i32 %53, 65
  br i1 %54, label %55, label %63

55:                                               ; preds = %47
  %56 = load i32, i32* %3, align 4
  %57 = sext i32 %56 to i64
  %58 = getelementptr inbounds [100 x [81 x i8]], [100 x [81 x i8]]* %6, i64 0, i64 %57
  %59 = getelementptr inbounds [81 x i8], [81 x i8]* %58, i64 0, i64 0
  %60 = load i8, i8* %59, align 1
  %61 = sext i8 %60 to i32
  %62 = icmp sle i32 %61, 90
  br i1 %62, label %79, label %63

63:                                               ; preds = %55, %47
  %64 = load i32, i32* %3, align 4
  %65 = sext i32 %64 to i64
  %66 = getelementptr inbounds [100 x [81 x i8]], [100 x [81 x i8]]* %6, i64 0, i64 %65
  %67 = getelementptr inbounds [81 x i8], [81 x i8]* %66, i64 0, i64 0
  %68 = load i8, i8* %67, align 1
  %69 = sext i8 %68 to i32
  %70 = icmp sge i32 %69, 97
  br i1 %70, label %71, label %183

71:                                               ; preds = %63
  %72 = load i32, i32* %3, align 4
  %73 = sext i32 %72 to i64
  %74 = getelementptr inbounds [100 x [81 x i8]], [100 x [81 x i8]]* %6, i64 0, i64 %73
  %75 = getelementptr inbounds [81 x i8], [81 x i8]* %74, i64 0, i64 0
  %76 = load i8, i8* %75, align 1
  %77 = sext i8 %76 to i32
  %78 = icmp sle i32 %77, 122
  br i1 %78, label %79, label %183

79:                                               ; preds = %71, %55, %39
  %80 = load i32, i32* %3, align 4
  %81 = sext i32 %80 to i64
  %82 = getelementptr inbounds [100 x i32], [100 x i32]* %5, i64 0, i64 %81
  %83 = load i32, i32* %82, align 4
  %84 = icmp eq i32 %83, 1
  br i1 %84, label %85, label %87

85:                                               ; preds = %79
  %86 = call i32 (i8*, ...) @printf(i8* getelementptr inbounds ([3 x i8], [3 x i8]* @.str, i64 0, i64 0))
  br label %182

87:                                               ; preds = %79
  store i32 1, i32* %4, align 4
  br label %88

88:                                               ; preds = %178, %87
  %89 = load i32, i32* %4, align 4
  %90 = load i32, i32* %3, align 4
  %91 = sext i32 %90 to i64
  %92 = getelementptr inbounds [100 x i32], [100 x i32]* %5, i64 0, i64 %91
  %93 = load i32, i32* %92, align 4
  %94 = icmp slt i32 %89, %93
  br i1 %94, label %95, label %181

95:                                               ; preds = %88
  %96 = load i32, i32* %3, align 4
  %97 = sext i32 %96 to i64
  %98 = getelementptr inbounds [100 x [81 x i8]], [100 x [81 x i8]]* %6, i64 0, i64 %97
  %99 = load i32, i32* %4, align 4
  %100 = sext i32 %99 to i64
  %101 = getelementptr inbounds [81 x i8], [81 x i8]* %98, i64 0, i64 %100
  %102 = load i8, i8* %101, align 1
  %103 = sext i8 %102 to i32
  %104 = icmp sle i32 %103, 47
  br i1 %104, label %165, label %105

105:                                              ; preds = %95
  %106 = load i32, i32* %3, align 4
  %107 = sext i32 %106 to i64
  %108 = getelementptr inbounds [100 x [81 x i8]], [100 x [81 x i8]]* %6, i64 0, i64 %107
  %109 = load i32, i32* %4, align 4
  %110 = sext i32 %109 to i64
  %111 = getelementptr inbounds [81 x i8], [81 x i8]* %108, i64 0, i64 %110
  %112 = load i8, i8* %111, align 1
  %113 = sext i8 %112 to i32
  %114 = icmp sge i32 %113, 58
  br i1 %114, label %115, label %125

115:                                              ; preds = %105
  %116 = load i32, i32* %3, align 4
  %117 = sext i32 %116 to i64
  %118 = getelementptr inbounds [100 x [81 x i8]], [100 x [81 x i8]]* %6, i64 0, i64 %117
  %119 = load i32, i32* %4, align 4
  %120 = sext i32 %119 to i64
  %121 = getelementptr inbounds [81 x i8], [81 x i8]* %118, i64 0, i64 %120
  %122 = load i8, i8* %121, align 1
  %123 = sext i8 %122 to i32
  %124 = icmp sle i32 %123, 64
  br i1 %124, label %165, label %125

125:                                              ; preds = %115, %105
  %126 = load i32, i32* %3, align 4
  %127 = sext i32 %126 to i64
  %128 = getelementptr inbounds [100 x [81 x i8]], [100 x [81 x i8]]* %6, i64 0, i64 %127
  %129 = load i32, i32* %4, align 4
  %130 = sext i32 %129 to i64
  %131 = getelementptr inbounds [81 x i8], [81 x i8]* %128, i64 0, i64 %130
  %132 = load i8, i8* %131, align 1
  %133 = sext i8 %132 to i32
  %134 = icmp sge i32 %133, 91
  br i1 %134, label %135, label %145

135:                                              ; preds = %125
  %136 = load i32, i32* %3, align 4
  %137 = sext i32 %136 to i64
  %138 = getelementptr inbounds [100 x [81 x i8]], [100 x [81 x i8]]* %6, i64 0, i64 %137
  %139 = load i32, i32* %4, align 4
  %140 = sext i32 %139 to i64
  %141 = getelementptr inbounds [81 x i8], [81 x i8]* %138, i64 0, i64 %140
  %142 = load i8, i8* %141, align 1
  %143 = sext i8 %142 to i32
  %144 = icmp sle i32 %143, 94
  br i1 %144, label %165, label %145

145:                                              ; preds = %135, %125
  %146 = load i32, i32* %3, align 4
  %147 = sext i32 %146 to i64
  %148 = getelementptr inbounds [100 x [81 x i8]], [100 x [81 x i8]]* %6, i64 0, i64 %147
  %149 = load i32, i32* %4, align 4
  %150 = sext i32 %149 to i64
  %151 = getelementptr inbounds [81 x i8], [81 x i8]* %148, i64 0, i64 %150
  %152 = load i8, i8* %151, align 1
  %153 = sext i8 %152 to i32
  %154 = icmp eq i32 %153, 96
  br i1 %154, label %165, label %155

155:                                              ; preds = %145
  %156 = load i32, i32* %3, align 4
  %157 = sext i32 %156 to i64
  %158 = getelementptr inbounds [100 x [81 x i8]], [100 x [81 x i8]]* %6, i64 0, i64 %157
  %159 = load i32, i32* %4, align 4
  %160 = sext i32 %159 to i64
  %161 = getelementptr inbounds [81 x i8], [81 x i8]* %158, i64 0, i64 %160
  %162 = load i8, i8* %161, align 1
  %163 = sext i8 %162 to i32
  %164 = icmp sge i32 %163, 123
  br i1 %164, label %165, label %167

165:                                              ; preds = %155, %145, %135, %115, %95
  %166 = call i32 (i8*, ...) @printf(i8* getelementptr inbounds ([3 x i8], [3 x i8]* @.str.1, i64 0, i64 0))
  br label %181

167:                                              ; preds = %155
  %168 = load i32, i32* %4, align 4
  %169 = load i32, i32* %3, align 4
  %170 = sext i32 %169 to i64
  %171 = getelementptr inbounds [100 x i32], [100 x i32]* %5, i64 0, i64 %170
  %172 = load i32, i32* %171, align 4
  %173 = sub nsw i32 %172, 1
  %174 = icmp eq i32 %168, %173
  br i1 %174, label %175, label %177

175:                                              ; preds = %167
  %176 = call i32 (i8*, ...) @printf(i8* getelementptr inbounds ([3 x i8], [3 x i8]* @.str, i64 0, i64 0))
  br label %177

177:                                              ; preds = %175, %167
  br label %178

178:                                              ; preds = %177
  %179 = load i32, i32* %4, align 4
  %180 = add nsw i32 %179, 1
  store i32 %180, i32* %4, align 4
  br label %88

181:                                              ; preds = %165, %88
  br label %182

182:                                              ; preds = %181, %85
  br label %185

183:                                              ; preds = %71, %63
  %184 = call i32 (i8*, ...) @printf(i8* getelementptr inbounds ([3 x i8], [3 x i8]* @.str.1, i64 0, i64 0))
  br label %185

185:                                              ; preds = %183, %182
  br label %186

186:                                              ; preds = %185
  %187 = load i32, i32* %3, align 4
  %188 = add nsw i32 %187, 1
  store i32 %188, i32* %3, align 4
  br label %35

189:                                              ; preds = %35
  ret i32 0
}

declare dso_local i32 @gets(...) #1

; Function Attrs: nounwind readonly
declare dso_local i32 @atoi(i8*) #2

; Function Attrs: nounwind readonly
declare dso_local i64 @strlen(i8*) #2

declare dso_local i32 @printf(i8*, ...) #1


!llvm.module.flags = !{!0}
!llvm.ident = !{!1}

!0 = !{i32 1, !"wchar_size", i32 4}
!1 = !{!"clang version 10.0.0-4ubuntu1 "}
